target datalayout = "e-m:e-p270:32:32-p271:32:32-p272:64:64-i64:64-i128:128-f80:128-n8:16:32:64-S128"
target triple = "x86_64-pc-linux-gnu"

%"class.cv::ParallelLoopBody" = type { ptr }
%"struct.cv::VariationalRefinementImpl::ComputeSmoothnessTermHorPass_ParBody" = type <{ %"class.cv::ParallelLoopBody", ptr, i32, i32, i32, [4 x i8], ptr, ptr, ptr, ptr, i8, [7 x i8] }>

@_ZTVN2cv16ParallelLoopBodyE = available_externally unnamed_addr constant { [5 x ptr] } { [5 x ptr] [ptr null, ptr @_ZTIN2cv16ParallelLoopBodyE, ptr @_ZN2cv16ParallelLoopBodyD1Ev, ptr @_ZN2cv16ParallelLoopBodyD0Ev, ptr @__cxa_pure_virtual] }, align 8

; Function Attrs: inlinehint mustprogress nounwind uwtable
define linkonce_odr hidden void @_ZN2cv16ParallelLoopBodyC2Ev(ptr noundef nonnull align 8 dereferenceable(8) %0) unnamed_addr #2 comdat align 2 {
  %2 = alloca ptr, align 8
  store ptr %0, ptr %2, align 8, !tbaa !91
  %3 = load ptr, ptr %2, align 8
  store ptr getelementptr inbounds inrange(-16, 24) ({ [5 x ptr] }, ptr @_ZTVN2cv16ParallelLoopBodyE, i32 0, i32 0, i32 2), ptr %3, align 8, !tbaa !8
  ret void
}

; Function Attrs: mustprogress nounwind uwtable
define hidden void @_ZN2cv25VariationalRefinementImpl36ComputeSmoothnessTermHorPass_ParBodyC2ERS0_iiRNS0_14RedBlackBufferES4_S4_S4_b(ptr noundef nonnull align 8 dereferenceable(65) %0, ptr noundef nonnull align 8 dereferenceable(5160) %1, i32 noundef %2, i32 noundef %3, ptr noundef nonnull align 8 dereferenceable(208) %4, ptr noundef nonnull align 8 dereferenceable(208) %5, ptr noundef nonnull align 8 dereferenceable(208) %6, ptr noundef nonnull align 8 dereferenceable(208) %7, i1 noundef zeroext %8) unnamed_addr #8 align 2 {
  %10 = alloca ptr, align 8
  %11 = alloca ptr, align 8
  %12 = alloca i32, align 4
  %13 = alloca i32, align 4
  %14 = alloca ptr, align 8
  %15 = alloca ptr, align 8
  %16 = alloca ptr, align 8
  %17 = alloca ptr, align 8
  %18 = alloca i8, align 1
  store ptr %0, ptr %10, align 8, !tbaa !143
  store ptr %1, ptr %11, align 8, !tbaa !3
  store i32 %2, ptr %12, align 4, !tbaa !49
  store i32 %3, ptr %13, align 4, !tbaa !49
  store ptr %4, ptr %14, align 8, !tbaa !44
  store ptr %5, ptr %15, align 8, !tbaa !44
  store ptr %6, ptr %16, align 8, !tbaa !44
  store ptr %7, ptr %17, align 8, !tbaa !44
  %19 = zext i1 %8 to i8
  store i8 %19, ptr %18, align 1, !tbaa !125
  %20 = load ptr, ptr %10, align 8
  call void @_ZN2cv16ParallelLoopBodyC2Ev(ptr noundef nonnull align 8 dereferenceable(8) %20) #18
  store ptr getelementptr inbounds inrange(-16, 24) ({ [5 x ptr] }, ptr @_ZTVN2cv25VariationalRefinementImpl36ComputeSmoothnessTermHorPass_ParBodyE, i32 0, i32 0, i32 2), ptr %20, align 8, !tbaa !8
  %21 = getelementptr inbounds nuw %"struct.cv::VariationalRefinementImpl::ComputeSmoothnessTermHorPass_ParBody", ptr %20, i32 0, i32 1
  %22 = load ptr, ptr %11, align 8, !tbaa !3
  store ptr %22, ptr %21, align 8, !tbaa !145
  %23 = getelementptr inbounds nuw %"struct.cv::VariationalRefinementImpl::ComputeSmoothnessTermHorPass_ParBody", ptr %20, i32 0, i32 2
  %24 = load i32, ptr %12, align 4, !tbaa !49
  store i32 %24, ptr %23, align 8, !tbaa !147
  %25 = getelementptr inbounds nuw %"struct.cv::VariationalRefinementImpl::ComputeSmoothnessTermHorPass_ParBody", ptr %20, i32 0, i32 4
  %26 = load i32, ptr %13, align 4, !tbaa !49
  store i32 %26, ptr %25, align 8, !tbaa !148
  %27 = getelementptr inbounds nuw %"struct.cv::VariationalRefinementImpl::ComputeSmoothnessTermHorPass_ParBody", ptr %20, i32 0, i32 6
  %28 = load ptr, ptr %14, align 8, !tbaa !44
  store ptr %28, ptr %27, align 8, !tbaa !149
  %29 = getelementptr inbounds nuw %"struct.cv::VariationalRefinementImpl::ComputeSmoothnessTermHorPass_ParBody", ptr %20, i32 0, i32 7
  %30 = load ptr, ptr %15, align 8, !tbaa !44
  store ptr %30, ptr %29, align 8, !tbaa !150
  %31 = getelementptr inbounds nuw %"struct.cv::VariationalRefinementImpl::ComputeSmoothnessTermHorPass_ParBody", ptr %20, i32 0, i32 8
  %32 = load ptr, ptr %16, align 8, !tbaa !44
  store ptr %32, ptr %31, align 8, !tbaa !151
  %33 = getelementptr inbounds nuw %"struct.cv::VariationalRefinementImpl::ComputeSmoothnessTermHorPass_ParBody", ptr %20, i32 0, i32 9
  %34 = load ptr, ptr %17, align 8, !tbaa !44
  store ptr %34, ptr %33, align 8, !tbaa !152
  %35 = getelementptr inbounds nuw %"struct.cv::VariationalRefinementImpl::ComputeSmoothnessTermHorPass_ParBody", ptr %20, i32 0, i32 10
  %36 = load i8, ptr %18, align 1, !tbaa !125, !range !133, !noundef !103
  %37 = trunc i8 %36 to i1
  %38 = zext i1 %37 to i8
  store i8 %38, ptr %35, align 8, !tbaa !153
  %39 = getelementptr inbounds nuw %"struct.cv::VariationalRefinementImpl::ComputeSmoothnessTermHorPass_ParBody", ptr %20, i32 0, i32 4
  %40 = load i32, ptr %39, align 8, !tbaa !148
  %41 = sitofp i32 %40 to double
  %42 = getelementptr inbounds nuw %"struct.cv::VariationalRefinementImpl::ComputeSmoothnessTermHorPass_ParBody", ptr %20, i32 0, i32 2
  %43 = load i32, ptr %42, align 8, !tbaa !147
  %44 = sitofp i32 %43 to double
  %45 = fdiv double %41, %44
  %46 = call double @llvm.ceil.f64(double %45)
  %47 = fptosi double %46 to i32
  %48 = getelementptr inbounds nuw %"struct.cv::VariationalRefinementImpl::ComputeSmoothnessTermHorPass_ParBody", ptr %20, i32 0, i32 3
  store i32 %47, ptr %48, align 4, !tbaa !154
  ret void
}