; Function Attrs: mustprogress nofree norecurse nosync nounwind willreturn memory(argmem: write) uwtable
define hidden void @_ZN2cv25VariationalRefinementImpl36ComputeSmoothnessTermHorPass_ParBodyC2ERS0_iiRNS0_14RedBlackBufferES4_S4_S4_b(ptr noundef nonnull writeonly align 8 captures(none) dereferenceable(65) initializes((0, 28), (32, 65)) %0, ptr noundef nonnull align 8 dereferenceable(5160) %1, i32 noundef %2, i32 noundef %3, ptr noundef nonnull align 8 dereferenceable(208) %4, ptr noundef nonnull align 8 dereferenceable(208) %5, ptr noundef nonnull align 8 dereferenceable(208) %6, ptr noundef nonnull align 8 dereferenceable(208) %7, i1 noundef zeroext %8) unnamed_addr #7 align 2 {
  %10 = zext i1 %8 to i8
  store ptr getelementptr inbounds nuw inrange(-16, 24) (i8, ptr @_ZTVN2cv25VariationalRefinementImpl36ComputeSmoothnessTermHorPass_ParBodyE, i64 16), ptr %0, align 8, !tbaa !3
  %11 = getelementptr inbounds nuw i8, ptr %0, i64 8
  store ptr %1, ptr %11, align 8, !tbaa !108
  %12 = getelementptr inbounds nuw i8, ptr %0, i64 16
  store i32 %2, ptr %12, align 8, !tbaa !110
  %13 = getelementptr inbounds nuw i8, ptr %0, i64 24
  store i32 %3, ptr %13, align 8, !tbaa !111
  %14 = getelementptr inbounds nuw i8, ptr %0, i64 32
  store ptr %4, ptr %14, align 8, !tbaa !112
  %15 = getelementptr inbounds nuw i8, ptr %0, i64 40
  store ptr %5, ptr %15, align 8, !tbaa !113
  %16 = getelementptr inbounds nuw i8, ptr %0, i64 48
  store ptr %6, ptr %16, align 8, !tbaa !114
  %17 = getelementptr inbounds nuw i8, ptr %0, i64 56
  store ptr %7, ptr %17, align 8, !tbaa !115
  %18 = getelementptr inbounds nuw i8, ptr %0, i64 64
  store i8 %10, ptr %18, align 8, !tbaa !116
  %19 = sitofp i32 %3 to double
  %20 = sitofp i32 %2 to double
  %21 = fdiv double %19, %20
  %22 = tail call double @llvm.ceil.f64(double %21)
  %23 = fptosi double %22 to i32
  %24 = getelementptr inbounds nuw i8, ptr %0, i64 20
  store i32 %23, ptr %24, align 4, !tbaa !117
  ret void
}